target datalayout = "e-m:e-p270:32:32-p271:32:32-p272:64:64-i64:64-i128:128-f80:128-n8:16:32:64-S128"
target triple = "x86_64-pc-linux-gnu"

%struct.AVStream = type { ptr, i32, i32, ptr, ptr, %struct.AVRational, i64, i64, i64, i32, i32, %struct.AVRational, ptr, %struct.AVRational, %struct.AVPacket, i32, %struct.AVRational, i32 }
%struct.AVPacket = type { ptr, i64, i64, ptr, i32, i32, i32, ptr, i32, i64, i64, ptr, ptr, %struct.AVRational }
%struct.AVRational = type { i32, i32 }
%struct.AVCodecParameters = type { i32, i32, i32, ptr, i32, ptr, i32, i32, i64, i32, i32, i32, i32, i32, i32, %struct.AVRational, %struct.AVRational, i32, i32, i32, i32, i32, i32, i32, %struct.AVChannelLayout, i32, i32, i32, i32, i32, i32 }
%struct.AVChannelLayout = type { i32, i32, %union.anon, ptr }
%union.anon = type { i64 }

@.str.13 = private unnamed_addr constant [60 x i8] c"Bandwidth info not available, set audio and video bitrates\0A\00", align 1
@.str.14 = private unnamed_addr constant [31 x i8] c"#EXT-X-STREAM-INF:BANDWIDTH=%d\00", align 1
@.str.15 = private unnamed_addr constant [22 x i8] c",AVERAGE-BANDWIDTH=%d\00", align 1
@.str.16 = private unnamed_addr constant [18 x i8] c",RESOLUTION=%dx%d\00", align 1
@.str.17 = private unnamed_addr constant [13 x i8] c",CODECS=\22%s\22\00", align 1
@.str.18 = private unnamed_addr constant [18 x i8] c",AUDIO=\22group_%s\22\00", align 1
@.str.19 = private unnamed_addr constant [22 x i8] c",CLOSED-CAPTIONS=\22%s\22\00", align 1
@.str.20 = private unnamed_addr constant [16 x i8] c",SUBTITLES=\22%s\22\00", align 1
@.str.21 = private unnamed_addr constant [6 x i8] c"\0A%s\0A\0A\00", align 1

; Function Attrs: nounwind uwtable
define void @ff_hls_write_stream_info(ptr noundef %0, ptr noundef %1, i32 noundef %2, i32 noundef %3, ptr noundef %4, ptr noundef %5, ptr noundef %6, ptr noundef %7, ptr noundef %8) #0 {
  %10 = alloca ptr, align 8
  %11 = alloca ptr, align 8
  %12 = alloca i32, align 4
  %13 = alloca i32, align 4
  %14 = alloca ptr, align 8
  %15 = alloca ptr, align 8
  %16 = alloca ptr, align 8
  %17 = alloca ptr, align 8
  %18 = alloca ptr, align 8
  store ptr %0, ptr %10, align 8, !tbaa !13
  store ptr %1, ptr %11, align 8, !tbaa !4
  store i32 %2, ptr %12, align 4, !tbaa !9
  store i32 %3, ptr %13, align 4, !tbaa !9
  store ptr %4, ptr %14, align 8, !tbaa !11
  store ptr %5, ptr %15, align 8, !tbaa !11
  store ptr %6, ptr %16, align 8, !tbaa !11
  store ptr %7, ptr %17, align 8, !tbaa !11
  store ptr %8, ptr %18, align 8, !tbaa !11
  %19 = load ptr, ptr %11, align 8, !tbaa !4
  %20 = icmp ne ptr %19, null
  br i1 %20, label %21, label %24

21:                                               ; preds = %9
  %22 = load ptr, ptr %14, align 8, !tbaa !11
  %23 = icmp ne ptr %22, null
  br i1 %23, label %25, label %24

24:                                               ; preds = %21, %9
  br label %125

25:                                               ; preds = %21
  %26 = load i32, ptr %12, align 4, !tbaa !9
  %27 = icmp ne i32 %26, 0
  br i1 %27, label %29, label %28

28:                                               ; preds = %25
  call void (ptr, i32, ptr, ...) @av_log(ptr noundef null, i32 noundef 24, ptr noundef @.str.13)
  br label %125

29:                                               ; preds = %25
  %30 = load ptr, ptr %11, align 8, !tbaa !4
  %31 = load i32, ptr %12, align 4, !tbaa !9
  %32 = call i32 (ptr, ptr, ...) @avio_printf(ptr noundef %30, ptr noundef @.str.14, i32 noundef %31)
  %33 = load i32, ptr %13, align 4, !tbaa !9
  %34 = icmp ne i32 %33, 0
  br i1 %34, label %35, label %39

35:                                               ; preds = %29
  %36 = load ptr, ptr %11, align 8, !tbaa !4
  %37 = load i32, ptr %13, align 4, !tbaa !9
  %38 = call i32 (ptr, ptr, ...) @avio_printf(ptr noundef %36, ptr noundef @.str.15, i32 noundef %37)
  br label %39

39:                                               ; preds = %35, %29
  %40 = load ptr, ptr %10, align 8, !tbaa !13
  %41 = icmp ne ptr %40, null
  br i1 %41, label %42, label %69

42:                                               ; preds = %39
  %43 = load ptr, ptr %10, align 8, !tbaa !13
  %44 = getelementptr inbounds nuw %struct.AVStream, ptr %43, i32 0, i32 3
  %45 = load ptr, ptr %44, align 8, !tbaa !15
  %46 = getelementptr inbounds nuw %struct.AVCodecParameters, ptr %45, i32 0, i32 13
  %47 = load i32, ptr %46, align 8, !tbaa !25
  %48 = icmp sgt i32 %47, 0
  br i1 %48, label %49, label %69

49:                                               ; preds = %42
  %50 = load ptr, ptr %10, align 8, !tbaa !13
  %51 = getelementptr inbounds nuw %struct.AVStream, ptr %50, i32 0, i32 3
  %52 = load ptr, ptr %51, align 8, !tbaa !15
  %53 = getelementptr inbounds nuw %struct.AVCodecParameters, ptr %52, i32 0, i32 14
  %54 = load i32, ptr %53, align 4, !tbaa !28
  %55 = icmp sgt i32 %54, 0
  br i1 %55, label %56, label %69

56:                                               ; preds = %49
  %57 = load ptr, ptr %11, align 8, !tbaa !4
  %58 = load ptr, ptr %10, align 8, !tbaa !13
  %59 = getelementptr inbounds nuw %struct.AVStream, ptr %58, i32 0, i32 3
  %60 = load ptr, ptr %59, align 8, !tbaa !15
  %61 = getelementptr inbounds nuw %struct.AVCodecParameters, ptr %60, i32 0, i32 13
  %62 = load i32, ptr %61, align 8, !tbaa !25
  %63 = load ptr, ptr %10, align 8, !tbaa !13
  %64 = getelementptr inbounds nuw %struct.AVStream, ptr %63, i32 0, i32 3
  %65 = load ptr, ptr %64, align 8, !tbaa !15
  %66 = getelementptr inbounds nuw %struct.AVCodecParameters, ptr %65, i32 0, i32 14
  %67 = load i32, ptr %66, align 4, !tbaa !28
  %68 = call i32 (ptr, ptr, ...) @avio_printf(ptr noundef %57, ptr noundef @.str.16, i32 noundef %62, i32 noundef %67)
  br label %69

69:                                               ; preds = %56, %49, %42, %39
  %70 = load ptr, ptr %16, align 8, !tbaa !11
  %71 = icmp ne ptr %70, null
  br i1 %71, label %72, label %82

72:                                               ; preds = %69
  %73 = load ptr, ptr %16, align 8, !tbaa !11
  %74 = getelementptr inbounds i8, ptr %73, i64 0
  %75 = load i8, ptr %74, align 1, !tbaa !29
  %76 = sext i8 %75 to i32
  %77 = icmp ne i32 %76, 0
  br i1 %77, label %78, label %82

78:                                               ; preds = %72
  %79 = load ptr, ptr %11, align 8, !tbaa !4
  %80 = load ptr, ptr %16, align 8, !tbaa !11
  %81 = call i32 (ptr, ptr, ...) @avio_printf(ptr noundef %79, ptr noundef @.str.17, ptr noundef %80)
  br label %82

82:                                               ; preds = %78, %72, %69
  %83 = load ptr, ptr %15, align 8, !tbaa !11
  %84 = icmp ne ptr %83, null
  br i1 %84, label %85, label %95

85:                                               ; preds = %82
  %86 = load ptr, ptr %15, align 8, !tbaa !11
  %87 = getelementptr inbounds i8, ptr %86, i64 0
  %88 = load i8, ptr %87, align 1, !tbaa !29
  %89 = sext i8 %88 to i32
  %90 = icmp ne i32 %89, 0
  br i1 %90, label %91, label %95

91:                                               ; preds = %85
  %92 = load ptr, ptr %11, align 8, !tbaa !4
  %93 = load ptr, ptr %15, align 8, !tbaa !11
  %94 = call i32 (ptr, ptr, ...) @avio_printf(ptr noundef %92, ptr noundef @.str.18, ptr noundef %93)
  br label %95

95:                                               ; preds = %91, %85, %82
  %96 = load ptr, ptr %17, align 8, !tbaa !11
  %97 = icmp ne ptr %96, null
  br i1 %97, label %98, label %108

98:                                               ; preds = %95
  %99 = load ptr, ptr %17, align 8, !tbaa !11
  %100 = getelementptr inbounds i8, ptr %99, i64 0
  %101 = load i8, ptr %100, align 1, !tbaa !29
  %102 = sext i8 %101 to i32
  %103 = icmp ne i32 %102, 0
  br i1 %103, label %104, label %108

104:                                              ; preds = %98
  %105 = load ptr, ptr %11, align 8, !tbaa !4
  %106 = load ptr, ptr %17, align 8, !tbaa !11
  %107 = call i32 (ptr, ptr, ...) @avio_printf(ptr noundef %105, ptr noundef @.str.19, ptr noundef %106)
  br label %108

108:                                              ; preds = %104, %98, %95
  %109 = load ptr, ptr %18, align 8, !tbaa !11
  %110 = icmp ne ptr %109, null
  br i1 %110, label %111, label %121

111:                                              ; preds = %108
  %112 = load ptr, ptr %18, align 8, !tbaa !11
  %113 = getelementptr inbounds i8, ptr %112, i64 0
  %114 = load i8, ptr %113, align 1, !tbaa !29
  %115 = sext i8 %114 to i32
  %116 = icmp ne i32 %115, 0
  br i1 %116, label %117, label %121

117:                                              ; preds = %111
  %118 = load ptr, ptr %11, align 8, !tbaa !4
  %119 = load ptr, ptr %18, align 8, !tbaa !11
  %120 = call i32 (ptr, ptr, ...) @avio_printf(ptr noundef %118, ptr noundef @.str.20, ptr noundef %119)
  br label %121

121:                                              ; preds = %117, %111, %108
  %122 = load ptr, ptr %11, align 8, !tbaa !4
  %123 = load ptr, ptr %14, align 8, !tbaa !11
  %124 = call i32 (ptr, ptr, ...) @avio_printf(ptr noundef %122, ptr noundef @.str.21, ptr noundef %123)
  br label %125

125:                                              ; preds = %121, %28, %24
  ret void
}