; Function Attrs: nounwind uwtable
define void @ff_hls_write_stream_info(ptr noundef readonly captures(address_is_null) %0, ptr noundef %1, i32 noundef %2, i32 noundef %3, ptr noundef %4, ptr noundef %5, ptr noundef %6, ptr noundef %7, ptr noundef %8) local_unnamed_addr #0 {
  %10 = icmp ne ptr %1, null
  %11 = icmp ne ptr %4, null
  %or.cond = and i1 %10, %11
  br i1 %or.cond, label %12, label %53

12:                                               ; preds = %9
  %.not = icmp eq i32 %2, 0
  br i1 %.not, label %13, label %14

13:                                               ; preds = %12
  tail call void (ptr, i32, ptr, ...) @av_log(ptr noundef null, i32 noundef 24, ptr noundef nonnull @.str.13) #8
  br label %53

14:                                               ; preds = %12
  %15 = tail call i32 (ptr, ptr, ...) @avio_printf(ptr noundef nonnull %1, ptr noundef nonnull @.str.14, i32 noundef %2) #8
  %.not42 = icmp eq i32 %3, 0
  br i1 %.not42, label %18, label %16

16:                                               ; preds = %14
  %17 = tail call i32 (ptr, ptr, ...) @avio_printf(ptr noundef nonnull %1, ptr noundef nonnull @.str.15, i32 noundef %3) #8
  br label %18

18:                                               ; preds = %16, %14
  %.not43 = icmp eq ptr %0, null
  br i1 %.not43, label %31, label %19

19:                                               ; preds = %18
  %20 = getelementptr inbounds nuw i8, ptr %0, i64 16
  %21 = load ptr, ptr %20, align 8, !tbaa !4
  %22 = getelementptr inbounds nuw i8, ptr %21, i64 72
  %23 = load i32, ptr %22, align 8, !tbaa !19
  %24 = icmp sgt i32 %23, 0
  br i1 %24, label %25, label %31

25:                                               ; preds = %19
  %26 = getelementptr inbounds nuw i8, ptr %21, i64 76
  %27 = load i32, ptr %26, align 4, !tbaa !22
  %28 = icmp sgt i32 %27, 0
  br i1 %28, label %29, label %31

29:                                               ; preds = %25
  %30 = tail call i32 (ptr, ptr, ...) @avio_printf(ptr noundef nonnull %1, ptr noundef nonnull @.str.16, i32 noundef %23, i32 noundef %27) #8
  br label %31

31:                                               ; preds = %29, %25, %19, %18
  %.not44 = icmp eq ptr %6, null
  br i1 %.not44, label %36, label %32

32:                                               ; preds = %31
  %33 = load i8, ptr %6, align 1, !tbaa !23
  %.not45 = icmp eq i8 %33, 0
  br i1 %.not45, label %36, label %34

34:                                               ; preds = %32
  %35 = tail call i32 (ptr, ptr, ...) @avio_printf(ptr noundef nonnull %1, ptr noundef nonnull @.str.17, ptr noundef nonnull %6) #8
  br label %36

36:                                               ; preds = %34, %32, %31
  %.not46 = icmp eq ptr %5, null
  br i1 %.not46, label %41, label %37

37:                                               ; preds = %36
  %38 = load i8, ptr %5, align 1, !tbaa !23
  %.not47 = icmp eq i8 %38, 0
  br i1 %.not47, label %41, label %39

39:                                               ; preds = %37
  %40 = tail call i32 (ptr, ptr, ...) @avio_printf(ptr noundef nonnull %1, ptr noundef nonnull @.str.18, ptr noundef nonnull %5) #8
  br label %41

41:                                               ; preds = %39, %37, %36
  %.not48 = icmp eq ptr %7, null
  br i1 %.not48, label %46, label %42

42:                                               ; preds = %41
  %43 = load i8, ptr %7, align 1, !tbaa !23
  %.not49 = icmp eq i8 %43, 0
  br i1 %.not49, label %46, label %44

44:                                               ; preds = %42
  %45 = tail call i32 (ptr, ptr, ...) @avio_printf(ptr noundef nonnull %1, ptr noundef nonnull @.str.19, ptr noundef nonnull %7) #8
  br label %46

46:                                               ; preds = %44, %42, %41
  %.not50 = icmp eq ptr %8, null
  br i1 %.not50, label %51, label %47

47:                                               ; preds = %46
  %48 = load i8, ptr %8, align 1, !tbaa !23
  %.not51 = icmp eq i8 %48, 0
  br i1 %.not51, label %51, label %49

49:                                               ; preds = %47
  %50 = tail call i32 (ptr, ptr, ...) @avio_printf(ptr noundef nonnull %1, ptr noundef nonnull @.str.20, ptr noundef nonnull %8) #8
  br label %51

51:                                               ; preds = %49, %47, %46
  %52 = tail call i32 (ptr, ptr, ...) @avio_printf(ptr noundef nonnull %1, ptr noundef nonnull @.str.21, ptr noundef nonnull %4) #8
  br label %53

53:                                               ; preds = %9, %51, %13
  ret void
}